; Function Attrs: mustprogress uwtable
define hidden void @_ZN7nanogui6Widget9add_childEiPS0_(ptr noundef nonnull align 8 dereferenceable(140) %0, i32 noundef %1, ptr noundef %2) unnamed_addr #0 align 2 {
  %4 = alloca ptr, align 8
  store ptr %2, ptr %4, align 8
  %5 = getelementptr inbounds i8, ptr %0, i64 64
  %6 = load ptr, ptr %5, align 8
  %7 = sext i32 %1 to i64
  %8 = getelementptr inbounds ptr, ptr %6, i64 %7
  %9 = call ptr @_ZNSt6vectorIPN7nanogui6WidgetESaIS2_EE6insertEN9__gnu_cxx17__normal_iteratorIPKS2_S4_EERS7_(ptr noundef nonnull align 8 dereferenceable(24) %5, ptr %8, ptr noundef nonnull align 8 dereferenceable(8) %4)
  %10 = load ptr, ptr %4, align 8
  call void @_ZNK7nanogui6Object7inc_refEv(ptr noundef nonnull align 8 dereferenceable(12) %10)
  %11 = load ptr, ptr %4, align 8
  %12 = getelementptr inbounds i8, ptr %11, i64 16
  store ptr %0, ptr %12, align 8
  %13 = getelementptr inbounds i8, ptr %0, i64 24
  %14 = load ptr, ptr %13, align 8
  %15 = load ptr, ptr %11, align 8
  %16 = getelementptr inbounds i8, ptr %15, i64 16
  %17 = load ptr, ptr %16, align 8
  call void %17(ptr noundef nonnull align 8 dereferenceable(140) %11, ptr noundef %14)
  ret void
}